; Function Attrs: mustprogress nofree norecurse nosync nounwind willreturn memory(read, inaccessiblemem: none) uwtable
define i32 @H5HF_get_iblock_max_drows_test(ptr noundef readonly captures(none) %0, i32 noundef %1) local_unnamed_addr #4 {
  %3 = load i8, ptr @H5HF_init_g, align 1, !tbaa !3, !range !7, !noundef !8
  %4 = trunc nuw i8 %3 to i1
  %5 = load i8, ptr @H5_libterm_g, align 1, !range !7
  %6 = trunc nuw i8 %5 to i1
  %7 = xor i1 %6, true
  %8 = select i1 %4, i1 true, i1 %7
  br i1 %8, label %9, label %18, !prof !9

9:                                                ; preds = %2
  %10 = load ptr, ptr %0, align 8, !tbaa !10
  %11 = getelementptr inbounds nuw i8, ptr %10, i64 320
  %12 = load i32, ptr %11, align 8, !tbaa !66
  %13 = getelementptr inbounds nuw i8, ptr %10, i64 328
  %14 = load i32, ptr %13, align 8, !tbaa !67
  %15 = add i32 %1, 1
  %16 = add i32 %15, %12
  %17 = sub i32 %16, %14
  br label %18

18:                                               ; preds = %9, %2
  %.0 = phi i32 [ %17, %9 ], [ 0, %2 ]
  ret i32 %.0
}